target datalayout = "e-m:e-p270:32:32-p271:32:32-p272:64:64-i64:64-i128:128-f80:128-n8:16:32:64-S128"
target triple = "x86_64-pc-linux-gnu"

%"struct.vcpkg::DependencyConstraint" = type { i32, [4 x i8], %"struct.vcpkg::Version" }
%"struct.vcpkg::Version" = type <{ %"class.std::__cxx11::basic_string", i32, [4 x i8] }>
%"class.std::__cxx11::basic_string" = type { %"struct.std::__cxx11::basic_string<char>::_Alloc_hider", i64, %union.anon }
%"struct.std::__cxx11::basic_string<char>::_Alloc_hider" = type { ptr }
%union.anon = type { i64, [8 x i8] }
%"struct.vcpkg::Dependency" = type { %"class.std::__cxx11::basic_string", %"class.std::vector", %"struct.vcpkg::PlatformExpression::Expr", %"struct.vcpkg::DependencyConstraint", i8, i8, %"struct.vcpkg::Json::Object" }
%"class.std::vector" = type { %"struct.std::_Vector_base" }
%"struct.std::_Vector_base" = type { %"struct.std::_Vector_base<vcpkg::DependencyRequestedFeature, std::allocator<vcpkg::DependencyRequestedFeature>>::_Vector_impl" }
%"struct.std::_Vector_base<vcpkg::DependencyRequestedFeature, std::allocator<vcpkg::DependencyRequestedFeature>>::_Vector_impl" = type { %"struct.std::_Vector_base<vcpkg::DependencyRequestedFeature, std::allocator<vcpkg::DependencyRequestedFeature>>::_Vector_impl_data" }
%"struct.std::_Vector_base<vcpkg::DependencyRequestedFeature, std::allocator<vcpkg::DependencyRequestedFeature>>::_Vector_impl_data" = type { ptr, ptr, ptr }
%"struct.vcpkg::PlatformExpression::Expr" = type { %"class.std::unique_ptr" }
%"class.std::unique_ptr" = type { %"struct.std::__uniq_ptr_data" }
%"struct.std::__uniq_ptr_data" = type { %"class.std::__uniq_ptr_impl" }
%"class.std::__uniq_ptr_impl" = type { %"class.std::tuple" }
%"class.std::tuple" = type { %"struct.std::_Tuple_impl" }
%"struct.std::_Tuple_impl" = type { %"struct.std::_Head_base.5" }
%"struct.std::_Head_base.5" = type { ptr }
%"struct.vcpkg::Json::Object" = type { %"class.std::vector.6" }
%"class.std::vector.6" = type { %"struct.std::_Vector_base.7" }
%"struct.std::_Vector_base.7" = type { %"struct.std::_Vector_base<std::pair<std::__cxx11::basic_string<char>, vcpkg::Json::Value>, std::allocator<std::pair<std::__cxx11::basic_string<char>, vcpkg::Json::Value>>>::_Vector_impl" }
%"struct.std::_Vector_base<std::pair<std::__cxx11::basic_string<char>, vcpkg::Json::Value>, std::allocator<std::pair<std::__cxx11::basic_string<char>, vcpkg::Json::Value>>>::_Vector_impl" = type { %"struct.std::_Vector_base<std::pair<std::__cxx11::basic_string<char>, vcpkg::Json::Value>, std::allocator<std::pair<std::__cxx11::basic_string<char>, vcpkg::Json::Value>>>::_Vector_impl_data" }
%"struct.std::_Vector_base<std::pair<std::__cxx11::basic_string<char>, vcpkg::Json::Value>, std::allocator<std::pair<std::__cxx11::basic_string<char>, vcpkg::Json::Value>>>::_Vector_impl_data" = type { ptr, ptr, ptr }
%"class.__gnu_cxx::__normal_iterator.225" = type { ptr }

; Function Attrs: mustprogress nounwind uwtable
define linkonce_odr dso_local void @_ZN9__gnu_cxx17__normal_iteratorIPKN5vcpkg26DependencyRequestedFeatureESt6vectorIS2_SaIS2_EEEC2ERKS4_(ptr noundef nonnull align 8 dereferenceable(8) %0, ptr noundef nonnull align 8 dereferenceable(8) %1) unnamed_addr #0 comdat align 2 {
  %3 = alloca ptr, align 8
  %4 = alloca ptr, align 8
  store ptr %0, ptr %3, align 8, !tbaa !315
  store ptr %1, ptr %4, align 8, !tbaa !602
  %5 = load ptr, ptr %3, align 8
  %6 = getelementptr inbounds nuw %"class.__gnu_cxx::__normal_iterator.225", ptr %5, i32 0, i32 0
  %7 = load ptr, ptr %4, align 8, !tbaa !602
  %8 = load ptr, ptr %7, align 8, !tbaa !106
  store ptr %8, ptr %6, align 8, !tbaa !317
  ret void
}

; Function Attrs: mustprogress nounwind uwtable
define available_externally noundef i32 @_ZNSt7__cxx1112basic_stringIcSt11char_traitsIcESaIcEE10_S_compareEmm(i64 noundef %0, i64 noundef %1) #0 align 2 {
  %3 = alloca i32, align 4
  %4 = alloca i64, align 8
  %5 = alloca i64, align 8
  %6 = alloca i64, align 8
  %7 = alloca i32, align 4
  store i64 %0, ptr %4, align 8, !tbaa !29
  store i64 %1, ptr %5, align 8, !tbaa !29
  call void @llvm.lifetime.start.p0(i64 8, ptr %6) #19
  %8 = load i64, ptr %4, align 8, !tbaa !29
  %9 = load i64, ptr %5, align 8, !tbaa !29
  %10 = sub i64 %8, %9
  store i64 %10, ptr %6, align 8, !tbaa !29
  %11 = load i64, ptr %6, align 8, !tbaa !29
  %12 = icmp sgt i64 %11, 2147483647
  br i1 %12, label %13, label %14

13:                                               ; preds = %2
  store i32 2147483647, ptr %3, align 4
  store i32 1, ptr %7, align 4
  br label %21

14:                                               ; preds = %2
  %15 = load i64, ptr %6, align 8, !tbaa !29
  %16 = icmp slt i64 %15, -2147483648
  br i1 %16, label %17, label %18

17:                                               ; preds = %14
  store i32 -2147483648, ptr %3, align 4
  store i32 1, ptr %7, align 4
  br label %21

18:                                               ; preds = %14
  %19 = load i64, ptr %6, align 8, !tbaa !29
  %20 = trunc i64 %19 to i32
  store i32 %20, ptr %3, align 4
  store i32 1, ptr %7, align 4
  br label %21

21:                                               ; preds = %18, %17, %13
  call void @llvm.lifetime.end.p0(i64 8, ptr %6) #19
  %22 = load i32, ptr %3, align 4
  ret i32 %22
}

; Function Attrs: mustprogress nounwind uwtable
define linkonce_odr dso_local noundef i32 @_ZNSt11char_traitsIcE7compareEPKcS2_m(ptr noundef %0, ptr noundef %1, i64 noundef %2) #0 comdat align 2 {
  %4 = alloca i32, align 4
  %5 = alloca ptr, align 8
  %6 = alloca ptr, align 8
  %7 = alloca i64, align 8
  store ptr %0, ptr %5, align 8, !tbaa !28
  store ptr %1, ptr %6, align 8, !tbaa !28
  store i64 %2, ptr %7, align 8, !tbaa !29
  %8 = load i64, ptr %7, align 8, !tbaa !29
  %9 = icmp eq i64 %8, 0
  br i1 %9, label %10, label %11

10:                                               ; preds = %3
  store i32 0, ptr %4, align 4
  br label %16

11:                                               ; preds = %3
  %12 = load ptr, ptr %5, align 8, !tbaa !28
  %13 = load ptr, ptr %6, align 8, !tbaa !28
  %14 = load i64, ptr %7, align 8, !tbaa !29
  %15 = call i32 @memcmp(ptr noundef %12, ptr noundef %13, i64 noundef %14) #19
  store i32 %15, ptr %4, align 4
  br label %16

16:                                               ; preds = %11, %10
  %17 = load i32, ptr %4, align 4
  ret i32 %17
}

; Function Attrs: mustprogress nounwind uwtable
define available_externally noundef ptr @_ZNKSt7__cxx1112basic_stringIcSt11char_traitsIcESaIcEE4dataEv(ptr noundef nonnull align 8 dereferenceable(32) %0) #0 align 2 {
  %2 = alloca ptr, align 8
  store ptr %0, ptr %2, align 8, !tbaa !68
  %3 = load ptr, ptr %2, align 8
  %4 = call noundef ptr @_ZNKSt7__cxx1112basic_stringIcSt11char_traitsIcESaIcEE7_M_dataEv(ptr noundef nonnull align 8 dereferenceable(32) %3)
  ret ptr %4
}

; Function Attrs: mustprogress nounwind uwtable
define available_externally noundef ptr @_ZNKSt7__cxx1112basic_stringIcSt11char_traitsIcESaIcEE7_M_dataEv(ptr noundef nonnull align 8 dereferenceable(32) %0) #0 align 2 {
  %2 = alloca ptr, align 8
  store ptr %0, ptr %2, align 8, !tbaa !68
  %3 = load ptr, ptr %2, align 8
  %4 = getelementptr inbounds nuw %"class.std::__cxx11::basic_string", ptr %3, i32 0, i32 0
  %5 = getelementptr inbounds nuw %"struct.std::__cxx11::basic_string<char>::_Alloc_hider", ptr %4, i32 0, i32 0
  %6 = load ptr, ptr %5, align 8, !tbaa !438
  ret ptr %6
}

; Function Attrs: inlinehint mustprogress nounwind uwtable
define linkonce_odr dso_local noundef nonnull align 8 dereferenceable(8) ptr @_ZSt3minImERKT_S2_S2_(ptr noundef nonnull align 8 dereferenceable(8) %0, ptr noundef nonnull align 8 dereferenceable(8) %1) #6 comdat {
  %3 = alloca ptr, align 8
  %4 = alloca ptr, align 8
  %5 = alloca ptr, align 8
  store ptr %0, ptr %4, align 8, !tbaa !76
  store ptr %1, ptr %5, align 8, !tbaa !76
  %6 = load ptr, ptr %5, align 8, !tbaa !76
  %7 = load i64, ptr %6, align 8, !tbaa !29
  %8 = load ptr, ptr %4, align 8, !tbaa !76
  %9 = load i64, ptr %8, align 8, !tbaa !29
  %10 = icmp ult i64 %7, %9
  br i1 %10, label %11, label %13

11:                                               ; preds = %2
  %12 = load ptr, ptr %5, align 8, !tbaa !76
  store ptr %12, ptr %3, align 8
  br label %15

13:                                               ; preds = %2
  %14 = load ptr, ptr %4, align 8, !tbaa !76
  store ptr %14, ptr %3, align 8
  br label %15

15:                                               ; preds = %13, %11
  %16 = load ptr, ptr %3, align 8
  ret ptr %16
}

; Function Attrs: mustprogress nounwind uwtable
define available_externally noundef i64 @_ZNKSt7__cxx1112basic_stringIcSt11char_traitsIcESaIcEE4sizeEv(ptr noundef nonnull align 8 dereferenceable(32) %0) #0 align 2 {
  %2 = alloca ptr, align 8
  store ptr %0, ptr %2, align 8, !tbaa !68
  %3 = load ptr, ptr %2, align 8
  %4 = getelementptr inbounds nuw %"class.std::__cxx11::basic_string", ptr %3, i32 0, i32 1
  %5 = load i64, ptr %4, align 8, !tbaa !290
  ret i64 %5
}

; Function Attrs: mustprogress nounwind uwtable
define linkonce_odr dso_local ptr @_ZNKSt6vectorIN5vcpkg26DependencyRequestedFeatureESaIS1_EE3endEv(ptr noundef nonnull align 8 dereferenceable(24) %0) #0 comdat align 2 {
  %2 = alloca %"class.__gnu_cxx::__normal_iterator.225", align 8
  %3 = alloca ptr, align 8
  store ptr %0, ptr %3, align 8, !tbaa !26
  %4 = load ptr, ptr %3, align 8
  %5 = getelementptr inbounds nuw %"struct.std::_Vector_base", ptr %4, i32 0, i32 0
  %6 = getelementptr inbounds nuw %"struct.std::_Vector_base<vcpkg::DependencyRequestedFeature, std::allocator<vcpkg::DependencyRequestedFeature>>::_Vector_impl_data", ptr %5, i32 0, i32 1
  call void @_ZN9__gnu_cxx17__normal_iteratorIPKN5vcpkg26DependencyRequestedFeatureESt6vectorIS2_SaIS2_EEEC2ERKS4_(ptr noundef nonnull align 8 dereferenceable(8) %2, ptr noundef nonnull align 8 dereferenceable(8) %6) #19
  %7 = getelementptr inbounds nuw %"class.__gnu_cxx::__normal_iterator.225", ptr %2, i32 0, i32 0
  %8 = load ptr, ptr %7, align 8
  ret ptr %8
}

; Function Attrs: mustprogress nounwind uwtable
define linkonce_odr dso_local ptr @_ZNKSt6vectorIN5vcpkg26DependencyRequestedFeatureESaIS1_EE5beginEv(ptr noundef nonnull align 8 dereferenceable(24) %0) #0 comdat align 2 {
  %2 = alloca %"class.__gnu_cxx::__normal_iterator.225", align 8
  %3 = alloca ptr, align 8
  store ptr %0, ptr %3, align 8, !tbaa !26
  %4 = load ptr, ptr %3, align 8
  %5 = getelementptr inbounds nuw %"struct.std::_Vector_base", ptr %4, i32 0, i32 0
  %6 = getelementptr inbounds nuw %"struct.std::_Vector_base<vcpkg::DependencyRequestedFeature, std::allocator<vcpkg::DependencyRequestedFeature>>::_Vector_impl_data", ptr %5, i32 0, i32 0
  call void @_ZN9__gnu_cxx17__normal_iteratorIPKN5vcpkg26DependencyRequestedFeatureESt6vectorIS2_SaIS2_EEEC2ERKS4_(ptr noundef nonnull align 8 dereferenceable(8) %2, ptr noundef nonnull align 8 dereferenceable(8) %6) #19
  %7 = getelementptr inbounds nuw %"class.__gnu_cxx::__normal_iterator.225", ptr %2, i32 0, i32 0
  %8 = load ptr, ptr %7, align 8
  ret ptr %8
}

; Function Attrs: mustprogress nounwind uwtable
define linkonce_odr dso_local noundef i64 @_ZNKSt6vectorIN5vcpkg26DependencyRequestedFeatureESaIS1_EE4sizeEv(ptr noundef nonnull align 8 dereferenceable(24) %0) #0 comdat align 2 {
  %2 = alloca ptr, align 8
  store ptr %0, ptr %2, align 8, !tbaa !26
  %3 = load ptr, ptr %2, align 8
  %4 = getelementptr inbounds nuw %"struct.std::_Vector_base", ptr %3, i32 0, i32 0
  %5 = getelementptr inbounds nuw %"struct.std::_Vector_base<vcpkg::DependencyRequestedFeature, std::allocator<vcpkg::DependencyRequestedFeature>>::_Vector_impl_data", ptr %4, i32 0, i32 1
  %6 = load ptr, ptr %5, align 8, !tbaa !313
  %7 = getelementptr inbounds nuw %"struct.std::_Vector_base", ptr %3, i32 0, i32 0
  %8 = getelementptr inbounds nuw %"struct.std::_Vector_base<vcpkg::DependencyRequestedFeature, std::allocator<vcpkg::DependencyRequestedFeature>>::_Vector_impl_data", ptr %7, i32 0, i32 0
  %9 = load ptr, ptr %8, align 8, !tbaa !314
  %10 = ptrtoint ptr %6 to i64
  %11 = ptrtoint ptr %9 to i64
  %12 = sub i64 %10, %11
  %13 = sdiv exact i64 %12, 40
  ret i64 %13
}

; Function Attrs: mustprogress uwtable
define available_externally noundef i32 @_ZNKSt7__cxx1112basic_stringIcSt11char_traitsIcESaIcEE7compareERKS4_(ptr noundef nonnull align 8 dereferenceable(32) %0, ptr noundef nonnull align 8 dereferenceable(32) %1) #2 align 2 {
  %3 = alloca ptr, align 8
  %4 = alloca ptr, align 8
  %5 = alloca i64, align 8
  %6 = alloca i64, align 8
  %7 = alloca i64, align 8
  %8 = alloca i32, align 4
  store ptr %0, ptr %3, align 8, !tbaa !68
  store ptr %1, ptr %4, align 8, !tbaa !68
  %9 = load ptr, ptr %3, align 8
  call void @llvm.lifetime.start.p0(i64 8, ptr %5) #19
  %10 = call noundef i64 @_ZNKSt7__cxx1112basic_stringIcSt11char_traitsIcESaIcEE4sizeEv(ptr noundef nonnull align 8 dereferenceable(32) %9) #19
  store i64 %10, ptr %5, align 8, !tbaa !29
  call void @llvm.lifetime.start.p0(i64 8, ptr %6) #19
  %11 = load ptr, ptr %4, align 8, !tbaa !68
  %12 = call noundef i64 @_ZNKSt7__cxx1112basic_stringIcSt11char_traitsIcESaIcEE4sizeEv(ptr noundef nonnull align 8 dereferenceable(32) %11) #19
  store i64 %12, ptr %6, align 8, !tbaa !29
  call void @llvm.lifetime.start.p0(i64 8, ptr %7) #19
  %13 = call noundef nonnull align 8 dereferenceable(8) ptr @_ZSt3minImERKT_S2_S2_(ptr noundef nonnull align 8 dereferenceable(8) %5, ptr noundef nonnull align 8 dereferenceable(8) %6)
  %14 = load i64, ptr %13, align 8, !tbaa !29
  store i64 %14, ptr %7, align 8, !tbaa !29
  call void @llvm.lifetime.start.p0(i64 4, ptr %8) #19
  %15 = call noundef ptr @_ZNKSt7__cxx1112basic_stringIcSt11char_traitsIcESaIcEE7_M_dataEv(ptr noundef nonnull align 8 dereferenceable(32) %9)
  %16 = load ptr, ptr %4, align 8, !tbaa !68
  %17 = call noundef ptr @_ZNKSt7__cxx1112basic_stringIcSt11char_traitsIcESaIcEE4dataEv(ptr noundef nonnull align 8 dereferenceable(32) %16) #19
  %18 = load i64, ptr %7, align 8, !tbaa !29
  %19 = call noundef i32 @_ZNSt11char_traitsIcE7compareEPKcS2_m(ptr noundef %15, ptr noundef %17, i64 noundef %18)
  store i32 %19, ptr %8, align 4, !tbaa !154
  %20 = load i32, ptr %8, align 4, !tbaa !154
  %21 = icmp ne i32 %20, 0
  br i1 %21, label %26, label %22

22:                                               ; preds = %2
  %23 = load i64, ptr %5, align 8, !tbaa !29
  %24 = load i64, ptr %6, align 8, !tbaa !29
  %25 = call noundef i32 @_ZNSt7__cxx1112basic_stringIcSt11char_traitsIcESaIcEE10_S_compareEmm(i64 noundef %23, i64 noundef %24) #19
  store i32 %25, ptr %8, align 4, !tbaa !154
  br label %26

26:                                               ; preds = %22, %2
  %27 = load i32, ptr %8, align 4, !tbaa !154
  call void @llvm.lifetime.end.p0(i64 4, ptr %8) #19
  call void @llvm.lifetime.end.p0(i64 8, ptr %7) #19
  call void @llvm.lifetime.end.p0(i64 8, ptr %6) #19
  call void @llvm.lifetime.end.p0(i64 8, ptr %5) #19
  ret i32 %27
}

; Function Attrs: mustprogress uwtable
define internal noundef zeroext i1 @_ZNK5vcpkg12_GLOBAL__N_112Canonicalize14DependencyLessclERKNS_10DependencyES5_(ptr noundef nonnull align 1 dereferenceable(1) %0, ptr noundef nonnull align 8 dereferenceable(144) %1, ptr noundef nonnull align 8 dereferenceable(144) %2) #2 align 2 {
  %4 = alloca i1, align 1
  %5 = alloca ptr, align 8
  %6 = alloca ptr, align 8
  %7 = alloca ptr, align 8
  %8 = alloca i32, align 4
  %9 = alloca i32, align 4
  %10 = alloca i32, align 4
  %11 = alloca %"class.__gnu_cxx::__normal_iterator.225", align 8
  %12 = alloca %"class.__gnu_cxx::__normal_iterator.225", align 8
  %13 = alloca %"class.__gnu_cxx::__normal_iterator.225", align 8
  %14 = alloca %"class.__gnu_cxx::__normal_iterator.225", align 8
  store ptr %0, ptr %5, align 8, !tbaa !859
  store ptr %1, ptr %6, align 8, !tbaa !22
  store ptr %2, ptr %7, align 8, !tbaa !22
  call void @llvm.lifetime.start.p0(i64 4, ptr %8) #19
  %15 = load ptr, ptr %6, align 8, !tbaa !22
  %16 = getelementptr inbounds nuw %"struct.vcpkg::Dependency", ptr %15, i32 0, i32 0
  %17 = load ptr, ptr %7, align 8, !tbaa !22
  %18 = getelementptr inbounds nuw %"struct.vcpkg::Dependency", ptr %17, i32 0, i32 0
  %19 = call noundef i32 @_ZNKSt7__cxx1112basic_stringIcSt11char_traitsIcESaIcEE7compareERKS4_(ptr noundef nonnull align 8 dereferenceable(32) %16, ptr noundef nonnull align 8 dereferenceable(32) %18)
  store i32 %19, ptr %8, align 4, !tbaa !154
  %20 = load i32, ptr %8, align 4, !tbaa !154
  %21 = icmp slt i32 %20, 0
  br i1 %21, label %22, label %23

22:                                               ; preds = %3
  store i1 true, ptr %4, align 1
  store i32 1, ptr %9, align 4
  br label %87

23:                                               ; preds = %3
  %24 = load i32, ptr %8, align 4, !tbaa !154
  %25 = icmp sgt i32 %24, 0
  br i1 %25, label %26, label %27

26:                                               ; preds = %23
  store i1 false, ptr %4, align 1
  store i32 1, ptr %9, align 4
  br label %87

27:                                               ; preds = %23
  call void @llvm.lifetime.start.p0(i64 4, ptr %10) #19
  %28 = load ptr, ptr %6, align 8, !tbaa !22
  %29 = getelementptr inbounds nuw %"struct.vcpkg::Dependency", ptr %28, i32 0, i32 2
  %30 = load ptr, ptr %7, align 8, !tbaa !22
  %31 = getelementptr inbounds nuw %"struct.vcpkg::Dependency", ptr %30, i32 0, i32 2
  %32 = call noundef i32 @_ZN5vcpkg18PlatformExpression7compareERKNS0_4ExprES3_(ptr noundef nonnull align 8 dereferenceable(8) %29, ptr noundef nonnull align 8 dereferenceable(8) %31)
  store i32 %32, ptr %10, align 4, !tbaa !154
  %33 = load i32, ptr %10, align 4, !tbaa !154
  %34 = icmp slt i32 %33, 0
  br i1 %34, label %35, label %36

35:                                               ; preds = %27
  store i1 true, ptr %4, align 1
  store i32 1, ptr %9, align 4
  br label %86

36:                                               ; preds = %27
  %37 = load i32, ptr %10, align 4, !tbaa !154
  %38 = icmp sgt i32 %37, 0
  br i1 %38, label %39, label %40

39:                                               ; preds = %36
  store i1 false, ptr %4, align 1
  store i32 1, ptr %9, align 4
  br label %86

40:                                               ; preds = %36
  %41 = load ptr, ptr %6, align 8, !tbaa !22
  %42 = getelementptr inbounds nuw %"struct.vcpkg::Dependency", ptr %41, i32 0, i32 1
  %43 = call noundef i64 @_ZNKSt6vectorIN5vcpkg26DependencyRequestedFeatureESaIS1_EE4sizeEv(ptr noundef nonnull align 8 dereferenceable(24) %42) #19
  %44 = load ptr, ptr %7, align 8, !tbaa !22
  %45 = getelementptr inbounds nuw %"struct.vcpkg::Dependency", ptr %44, i32 0, i32 1
  %46 = call noundef i64 @_ZNKSt6vectorIN5vcpkg26DependencyRequestedFeatureESaIS1_EE4sizeEv(ptr noundef nonnull align 8 dereferenceable(24) %45) #19
  %47 = icmp ult i64 %43, %46
  br i1 %47, label %48, label %49

48:                                               ; preds = %40
  store i1 true, ptr %4, align 1
  store i32 1, ptr %9, align 4
  br label %86

49:                                               ; preds = %40
  %50 = load ptr, ptr %7, align 8, !tbaa !22
  %51 = getelementptr inbounds nuw %"struct.vcpkg::Dependency", ptr %50, i32 0, i32 1
  %52 = call noundef i64 @_ZNKSt6vectorIN5vcpkg26DependencyRequestedFeatureESaIS1_EE4sizeEv(ptr noundef nonnull align 8 dereferenceable(24) %51) #19
  %53 = load ptr, ptr %6, align 8, !tbaa !22
  %54 = getelementptr inbounds nuw %"struct.vcpkg::Dependency", ptr %53, i32 0, i32 1
  %55 = call noundef i64 @_ZNKSt6vectorIN5vcpkg26DependencyRequestedFeatureESaIS1_EE4sizeEv(ptr noundef nonnull align 8 dereferenceable(24) %54) #19
  %56 = icmp ult i64 %52, %55
  br i1 %56, label %57, label %58

57:                                               ; preds = %49
  store i1 false, ptr %4, align 1
  store i32 1, ptr %9, align 4
  br label %86

58:                                               ; preds = %49
  %59 = load ptr, ptr %6, align 8, !tbaa !22
  %60 = getelementptr inbounds nuw %"struct.vcpkg::Dependency", ptr %59, i32 0, i32 1
  %61 = call ptr @_ZNKSt6vectorIN5vcpkg26DependencyRequestedFeatureESaIS1_EE5beginEv(ptr noundef nonnull align 8 dereferenceable(24) %60) #19
  %62 = getelementptr inbounds nuw %"class.__gnu_cxx::__normal_iterator.225", ptr %11, i32 0, i32 0
  store ptr %61, ptr %62, align 8
  %63 = load ptr, ptr %6, align 8, !tbaa !22
  %64 = getelementptr inbounds nuw %"struct.vcpkg::Dependency", ptr %63, i32 0, i32 1
  %65 = call ptr @_ZNKSt6vectorIN5vcpkg26DependencyRequestedFeatureESaIS1_EE3endEv(ptr noundef nonnull align 8 dereferenceable(24) %64) #19
  %66 = getelementptr inbounds nuw %"class.__gnu_cxx::__normal_iterator.225", ptr %12, i32 0, i32 0
  store ptr %65, ptr %66, align 8
  %67 = load ptr, ptr %7, align 8, !tbaa !22
  %68 = getelementptr inbounds nuw %"struct.vcpkg::Dependency", ptr %67, i32 0, i32 1
  %69 = call ptr @_ZNKSt6vectorIN5vcpkg26DependencyRequestedFeatureESaIS1_EE5beginEv(ptr noundef nonnull align 8 dereferenceable(24) %68) #19
  %70 = getelementptr inbounds nuw %"class.__gnu_cxx::__normal_iterator.225", ptr %13, i32 0, i32 0
  store ptr %69, ptr %70, align 8
  %71 = load ptr, ptr %7, align 8, !tbaa !22
  %72 = getelementptr inbounds nuw %"struct.vcpkg::Dependency", ptr %71, i32 0, i32 1
  %73 = call ptr @_ZNKSt6vectorIN5vcpkg26DependencyRequestedFeatureESaIS1_EE3endEv(ptr noundef nonnull align 8 dereferenceable(24) %72) #19
  %74 = getelementptr inbounds nuw %"class.__gnu_cxx::__normal_iterator.225", ptr %14, i32 0, i32 0
  store ptr %73, ptr %74, align 8
  %75 = getelementptr inbounds nuw %"class.__gnu_cxx::__normal_iterator.225", ptr %11, i32 0, i32 0
  %76 = load ptr, ptr %75, align 8
  %77 = getelementptr inbounds nuw %"class.__gnu_cxx::__normal_iterator.225", ptr %12, i32 0, i32 0
  %78 = load ptr, ptr %77, align 8
  %79 = getelementptr inbounds nuw %"class.__gnu_cxx::__normal_iterator.225", ptr %13, i32 0, i32 0
  %80 = load ptr, ptr %79, align 8
  %81 = getelementptr inbounds nuw %"class.__gnu_cxx::__normal_iterator.225", ptr %14, i32 0, i32 0
  %82 = load ptr, ptr %81, align 8
  %83 = call noundef zeroext i1 @_ZSt23lexicographical_compareIN9__gnu_cxx17__normal_iteratorIPKN5vcpkg26DependencyRequestedFeatureESt6vectorIS3_SaIS3_EEEES9_NS2_12_GLOBAL__N_112Canonicalize21DependencyFeatureLessEEbT_SD_T0_SE_T1_(ptr %76, ptr %78, ptr %80, ptr %82)
  br i1 %83, label %84, label %85

84:                                               ; preds = %58
  store i1 true, ptr %4, align 1
  store i32 1, ptr %9, align 4
  br label %86

85:                                               ; preds = %58
  store i1 false, ptr %4, align 1
  store i32 1, ptr %9, align 4
  br label %86

86:                                               ; preds = %85, %84, %57, %48, %39, %35
  call void @llvm.lifetime.end.p0(i64 4, ptr %10) #19
  br label %87

87:                                               ; preds = %86, %26, %22
  call void @llvm.lifetime.end.p0(i64 4, ptr %8) #19
  %88 = load i1, ptr %4, align 1
  ret i1 %88
}