; Function Attrs: mustprogress uwtable
define internal fastcc noundef zeroext i1 @_ZNK5vcpkg12_GLOBAL__N_112Canonicalize14DependencyLessclERKNS_10DependencyES5_(ptr noundef nonnull align 8 dereferenceable(144) %0, ptr noundef nonnull align 8 dereferenceable(144) %1) unnamed_addr #2 align 2 {
  %3 = getelementptr inbounds nuw i8, ptr %0, i64 8
  %4 = load i64, ptr %3, align 8, !tbaa !22
  %5 = getelementptr inbounds nuw i8, ptr %1, i64 8
  %6 = load i64, ptr %5, align 8, !tbaa !22
  %.sroa.speculated.i = tail call i64 @llvm.umin.i64(i64 %6, i64 %4)
  %7 = icmp eq i64 %.sroa.speculated.i, 0
  br i1 %7, label %_ZNSt11char_traitsIcE7compareEPKcS2_m.exit.thread.i, label %_ZNSt11char_traitsIcE7compareEPKcS2_m.exit.i

_ZNSt11char_traitsIcE7compareEPKcS2_m.exit.i:     ; preds = %2
  %8 = load ptr, ptr %1, align 8, !tbaa !21
  %9 = load ptr, ptr %0, align 8, !tbaa !21
  %10 = tail call i32 @memcmp(ptr noundef %9, ptr noundef %8, i64 noundef %.sroa.speculated.i) #23
  %.not.i = icmp eq i32 %10, 0
  br i1 %.not.i, label %_ZNSt11char_traitsIcE7compareEPKcS2_m.exit.thread.i, label %_ZNKSt7__cxx1112basic_stringIcSt11char_traitsIcESaIcEE7compareERKS4_.exit

_ZNSt11char_traitsIcE7compareEPKcS2_m.exit.thread.i: ; preds = %_ZNSt11char_traitsIcE7compareEPKcS2_m.exit.i, %2
  %11 = sub i64 %4, %6
  %spec.select7.i.i = tail call i64 @llvm.smax.i64(i64 %11, i64 -2147483648)
  %.08.i.i = tail call i64 @llvm.smin.i64(i64 %spec.select7.i.i, i64 2147483647)
  %.0.i6.i = trunc nsw i64 %.08.i.i to i32
  br label %_ZNKSt7__cxx1112basic_stringIcSt11char_traitsIcESaIcEE7compareERKS4_.exit

_ZNKSt7__cxx1112basic_stringIcSt11char_traitsIcESaIcEE7compareERKS4_.exit: ; preds = %_ZNSt11char_traitsIcE7compareEPKcS2_m.exit.i, %_ZNSt11char_traitsIcE7compareEPKcS2_m.exit.thread.i
  %.0.i = phi i32 [ %10, %_ZNSt11char_traitsIcE7compareEPKcS2_m.exit.i ], [ %.0.i6.i, %_ZNSt11char_traitsIcE7compareEPKcS2_m.exit.thread.i ]
  %12 = icmp slt i32 %.0.i, 0
  br i1 %12, label %42, label %13

13:                                               ; preds = %_ZNKSt7__cxx1112basic_stringIcSt11char_traitsIcESaIcEE7compareERKS4_.exit
  %.not = icmp eq i32 %.0.i, 0
  br i1 %.not, label %14, label %42

14:                                               ; preds = %13
  %15 = getelementptr inbounds nuw i8, ptr %0, i64 56
  %16 = getelementptr inbounds nuw i8, ptr %1, i64 56
  %17 = tail call noundef i32 @_ZN5vcpkg18PlatformExpression7compareERKNS0_4ExprES3_(ptr noundef nonnull align 8 dereferenceable(8) %15, ptr noundef nonnull align 8 dereferenceable(8) %16)
  %18 = icmp slt i32 %17, 0
  br i1 %18, label %42, label %19

19:                                               ; preds = %14
  %.not21 = icmp eq i32 %17, 0
  br i1 %.not21, label %20, label %42

20:                                               ; preds = %19
  %21 = getelementptr inbounds nuw i8, ptr %0, i64 32
  %22 = getelementptr inbounds nuw i8, ptr %0, i64 40
  %23 = load ptr, ptr %22, align 8, !tbaa !62
  %24 = load ptr, ptr %21, align 8, !tbaa !63
  %25 = ptrtoint ptr %23 to i64
  %26 = ptrtoint ptr %24 to i64
  %27 = sub i64 %25, %26
  %28 = sdiv exact i64 %27, 40
  %29 = getelementptr inbounds nuw i8, ptr %1, i64 32
  %30 = getelementptr inbounds nuw i8, ptr %1, i64 40
  %31 = load ptr, ptr %30, align 8, !tbaa !62
  %32 = load ptr, ptr %29, align 8, !tbaa !63
  %33 = ptrtoint ptr %31 to i64
  %34 = ptrtoint ptr %32 to i64
  %35 = sub i64 %33, %34
  %36 = sdiv exact i64 %35, 40
  %37 = icmp ult i64 %28, %36
  br i1 %37, label %42, label %38

38:                                               ; preds = %20
  %39 = icmp ult i64 %36, %28
  br i1 %39, label %42, label %40

40:                                               ; preds = %38
  %41 = tail call fastcc noundef zeroext i1 @_ZSt23lexicographical_compareIN9__gnu_cxx17__normal_iteratorIPKN5vcpkg26DependencyRequestedFeatureESt6vectorIS3_SaIS3_EEEES9_NS2_12_GLOBAL__N_112Canonicalize21DependencyFeatureLessEEbT_SD_T0_SE_T1_(ptr %24, ptr %23, ptr %32, ptr %31)
  br label %42

42:                                               ; preds = %14, %19, %20, %38, %40, %13, %_ZNKSt7__cxx1112basic_stringIcSt11char_traitsIcESaIcEE7compareERKS4_.exit
  %.0 = phi i1 [ true, %_ZNKSt7__cxx1112basic_stringIcSt11char_traitsIcESaIcEE7compareERKS4_.exit ], [ false, %13 ], [ true, %14 ], [ false, %19 ], [ true, %20 ], [ false, %38 ], [ %41, %40 ]
  ret i1 %.0
}